; ModuleID = '16/1251.c'
source_filename = "16/1251.c"
target datalayout = "e-m:e-p270:32:32-p271:32:32-p272:64:64-i64:64-f80:128-n8:16:32:64-S128"
target triple = "x86_64-pc-linux-gnu"

@.str = private unnamed_addr constant [3 x i8] c"%c\00", align 1

; Function Attrs: noinline nounwind uwtable
define dso_local i32 @main() #0 {
  %1 = alloca i32, align 4
  %2 = alloca [6 x i8], align 1
  %3 = alloca i32, align 4
  %4 = alloca i32, align 4
  store i32 0, i32* %1, align 4
  %5 = getelementptr inbounds [6 x i8], [6 x i8]* %2, i64 0, i64 0
  %6 = call i32 (i8*, ...) bitcast (i32 (...)* @gets to i32 (i8*, ...)*)(i8* %5)
  store i32 5, i32* %3, align 4
  br label %7

7:                                                ; preds = %82, %0
  %8 = load i32, i32* %3, align 4
  %9 = icmp sge i32 %8, 0
  br i1 %9, label %10, label %85

10:                                               ; preds = %7
  %11 = load i32, i32* %3, align 4
  %12 = sext i32 %11 to i64
  %13 = getelementptr inbounds [6 x i8], [6 x i8]* %2, i64 0, i64 %12
  %14 = load i8, i8* %13, align 1
  %15 = sext i8 %14 to i32
  %16 = icmp eq i32 %15, 48
  br i1 %16, label %80, label %17

17:                                               ; preds = %10
  %18 = load i32, i32* %3, align 4
  %19 = sext i32 %18 to i64
  %20 = getelementptr inbounds [6 x i8], [6 x i8]* %2, i64 0, i64 %19
  %21 = load i8, i8* %20, align 1
  %22 = sext i8 %21 to i32
  %23 = icmp eq i32 %22, 49
  br i1 %23, label %80, label %24

24:                                               ; preds = %17
  %25 = load i32, i32* %3, align 4
  %26 = sext i32 %25 to i64
  %27 = getelementptr inbounds [6 x i8], [6 x i8]* %2, i64 0, i64 %26
  %28 = load i8, i8* %27, align 1
  %29 = sext i8 %28 to i32
  %30 = icmp eq i32 %29, 50
  br i1 %30, label %80, label %31

31:                                               ; preds = %24
  %32 = load i32, i32* %3, align 4
  %33 = sext i32 %32 to i64
  %34 = getelementptr inbounds [6 x i8], [6 x i8]* %2, i64 0, i64 %33
  %35 = load i8, i8* %34, align 1
  %36 = sext i8 %35 to i32
  %37 = icmp eq i32 %36, 51
  br i1 %37, label %80, label %38

38:                                               ; preds = %31
  %39 = load i32, i32* %3, align 4
  %40 = sext i32 %39 to i64
  %41 = getelementptr inbounds [6 x i8], [6 x i8]* %2, i64 0, i64 %40
  %42 = load i8, i8* %41, align 1
  %43 = sext i8 %42 to i32
  %44 = icmp eq i32 %43, 52
  br i1 %44, label %80, label %45

45:                                               ; preds = %38
  %46 = load i32, i32* %3, align 4
  %47 = sext i32 %46 to i64
  %48 = getelementptr inbounds [6 x i8], [6 x i8]* %2, i64 0, i64 %47
  %49 = load i8, i8* %48, align 1
  %50 = sext i8 %49 to i32
  %51 = icmp eq i32 %50, 53
  br i1 %51, label %80, label %52

52:                                               ; preds = %45
  %53 = load i32, i32* %3, align 4
  %54 = sext i32 %53 to i64
  %55 = getelementptr inbounds [6 x i8], [6 x i8]* %2, i64 0, i64 %54
  %56 = load i8, i8* %55, align 1
  %57 = sext i8 %56 to i32
  %58 = icmp eq i32 %57, 54
  br i1 %58, label %80, label %59

59:                                               ; preds = %52
  %60 = load i32, i32* %3, align 4
  %61 = sext i32 %60 to i64
  %62 = getelementptr inbounds [6 x i8], [6 x i8]* %2, i64 0, i64 %61
  %63 = load i8, i8* %62, align 1
  %64 = sext i8 %63 to i32
  %65 = icmp eq i32 %64, 55
  br i1 %65, label %80, label %66

66:                                               ; preds = %59
  %67 = load i32, i32* %3, align 4
  %68 = sext i32 %67 to i64
  %69 = getelementptr inbounds [6 x i8], [6 x i8]* %2, i64 0, i64 %68
  %70 = load i8, i8* %69, align 1
  %71 = sext i8 %70 to i32
  %72 = icmp eq i32 %71, 56
  br i1 %72, label %80, label %73

73:                                               ; preds = %66
  %74 = load i32, i32* %3, align 4
  %75 = sext i32 %74 to i64
  %76 = getelementptr inbounds [6 x i8], [6 x i8]* %2, i64 0, i64 %75
  %77 = load i8, i8* %76, align 1
  %78 = sext i8 %77 to i32
  %79 = icmp eq i32 %78, 57
  br i1 %79, label %80, label %81

80:                                               ; preds = %73, %66, %59, %52, %45, %38, %31, %24, %17, %10
  br label %85

81:                                               ; preds = %73
  br label %82

82:                                               ; preds = %81
  %83 = load i32, i32* %3, align 4
  %84 = add nsw i32 %83, -1
  store i32 %84, i32* %3, align 4
  br label %7

85:                                               ; preds = %80, %7
  %86 = load i32, i32* %3, align 4
  store i32 %86, i32* %4, align 4
  br label %87

87:                                               ; preds = %97, %85
  %88 = load i32, i32* %4, align 4
  %89 = icmp sge i32 %88, 0
  br i1 %89, label %90, label %100

90:                                               ; preds = %87
  %91 = load i32, i32* %4, align 4
  %92 = sext i32 %91 to i64
  %93 = getelementptr inbounds [6 x i8], [6 x i8]* %2, i64 0, i64 %92
  %94 = load i8, i8* %93, align 1
  %95 = sext i8 %94 to i32
  %96 = call i32 (i8*, ...) @printf(i8* getelementptr inbounds ([3 x i8], [3 x i8]* @.str, i64 0, i64 0), i32 %95)
  br label %97

97:                                               ; preds = %90
  %98 = load i32, i32* %4, align 4
  %99 = add nsw i32 %98, -1
  store i32 %99, i32* %4, align 4
  br label %87

100:                                              ; preds = %87
  ret i32 0
}

declare dso_local i32 @gets(...) #1

declare dso_local i32 @printf(i8*, ...) #1


!llvm.module.flags = !{!0}
!llvm.ident = !{!1}

!0 = !{i32 1, !"wchar_size", i32 4}
!1 = !{!"clang version 10.0.0-4ubuntu1 "}
